target datalayout = "e-m:e-p270:32:32-p271:32:32-p272:64:64-i64:64-i128:128-f80:128-n8:16:32:64-S128"
target triple = "x86_64-pc-linux-gnu"

%struct.amqp_conv = type { i8, ptr }
%struct._packet_info = type { ptr, ptr, i32, i32, %struct.nstime_t, %struct.nstime_t, %struct.nstime_t, i8, ptr, ptr, ptr, ptr, %struct._address, %struct._address, %struct._address, %struct._address, %struct._address, %struct._address, i32, ptr, i8, [3 x i8], %struct.anon.1, i32, i32, i32, i32, ptr, i8, ptr, ptr, i16, i16, i32, i32, i16, i32, i32, ptr, ptr, ptr, i8, i8, i16, i16, i16, i32, i16, i16, ptr, ptr, ptr, ptr, ptr, i32, i32 }
%struct.nstime_t = type { i64, i32 }
%struct._address = type { i32, i32, ptr, ptr }
%struct.anon.1 = type { i8, [3 x i8] }
%struct._amqp_channel_t = type { ptr, i8, i16, i64, ptr, ptr, ptr }
%struct._frame_data = type <{ i32, i32, i32, i32, i32, [4 x i8], i64, ptr, ptr, ptr, i8, i16, [5 x i8], %struct.nstime_t, %struct.nstime_t, i32, i32 }>

@proto_amqp = internal global i32 0, align 4

; Function Attrs: null_pointer_is_valid sspstrong uwtable
define internal ptr @get_conversation_channel(ptr noundef %0, i16 noundef zeroext %1) #0 {
  %3 = alloca ptr, align 8
  %4 = alloca ptr, align 8
  %5 = alloca i16, align 2
  %6 = alloca ptr, align 8
  %7 = alloca ptr, align 8
  %8 = alloca i32, align 4
  store ptr %0, ptr %4, align 8
  store i16 %1, ptr %5, align 2
  call void @llvm.lifetime.start.p0(i64 8, ptr %6) #11
  call void @llvm.lifetime.start.p0(i64 8, ptr %7) #11
  %9 = load ptr, ptr %4, align 8
  %10 = load i32, ptr @proto_amqp, align 4
  %11 = call ptr @conversation_get_proto_data(ptr noundef %9, i32 noundef %10)
  store ptr %11, ptr %6, align 8
  %12 = load ptr, ptr %6, align 8
  %13 = icmp ne ptr %12, null
  br i1 %13, label %15, label %14

14:                                               ; preds = %2
  store ptr null, ptr %3, align 8
  store i32 1, ptr %8, align 4
  br label %46

15:                                               ; preds = %2
  %16 = load ptr, ptr %6, align 8
  %17 = getelementptr inbounds nuw %struct.amqp_conv, ptr %16, i32 0, i32 1
  %18 = load ptr, ptr %17, align 8
  %19 = load i16, ptr %5, align 2
  %20 = zext i16 %19 to i32
  %21 = zext i32 %20 to i64
  %22 = inttoptr i64 %21 to ptr
  %23 = call ptr @wmem_map_lookup(ptr noundef %18, ptr noundef %22)
  store ptr %23, ptr %7, align 8
  %24 = load ptr, ptr %7, align 8
  %25 = icmp eq ptr %24, null
  br i1 %25, label %26, label %44

26:                                               ; preds = %15
  %27 = call ptr @wmem_file_scope()
  %28 = call noalias ptr @wmem_alloc0(ptr noundef %27, i64 noundef 48) #13
  store ptr %28, ptr %7, align 8
  %29 = load ptr, ptr %6, align 8
  %30 = load ptr, ptr %7, align 8
  %31 = getelementptr inbounds nuw %struct._amqp_channel_t, ptr %30, i32 0, i32 0
  store ptr %29, ptr %31, align 8
  %32 = load i16, ptr %5, align 2
  %33 = load ptr, ptr %7, align 8
  %34 = getelementptr inbounds nuw %struct._amqp_channel_t, ptr %33, i32 0, i32 2
  store i16 %32, ptr %34, align 2
  %35 = load ptr, ptr %6, align 8
  %36 = getelementptr inbounds nuw %struct.amqp_conv, ptr %35, i32 0, i32 1
  %37 = load ptr, ptr %36, align 8
  %38 = load i16, ptr %5, align 2
  %39 = zext i16 %38 to i32
  %40 = zext i32 %39 to i64
  %41 = inttoptr i64 %40 to ptr
  %42 = load ptr, ptr %7, align 8
  %43 = call ptr @wmem_map_insert(ptr noundef %37, ptr noundef %41, ptr noundef %42)
  br label %44

44:                                               ; preds = %26, %15
  %45 = load ptr, ptr %7, align 8
  store ptr %45, ptr %3, align 8
  store i32 1, ptr %8, align 4
  br label %46

46:                                               ; preds = %44, %14
  call void @llvm.lifetime.end.p0(i64 8, ptr %7) #11
  call void @llvm.lifetime.end.p0(i64 8, ptr %6) #11
  %47 = load ptr, ptr %3, align 8
  ret ptr %47
}

; Function Attrs: null_pointer_is_valid sspstrong uwtable
define internal i32 @dissect_amqp_0_9_method_confirm_select_ok(i16 noundef zeroext %0, ptr noundef %1, ptr noundef %2, i32 noundef %3, ptr noundef %4) #0 {
  %6 = alloca i16, align 2
  %7 = alloca ptr, align 8
  %8 = alloca ptr, align 8
  %9 = alloca i32, align 4
  %10 = alloca ptr, align 8
  %11 = alloca ptr, align 8
  store i16 %0, ptr %6, align 2
  store ptr %1, ptr %7, align 8
  store ptr %2, ptr %8, align 8
  store i32 %3, ptr %9, align 4
  store ptr %4, ptr %10, align 8
  %12 = load ptr, ptr %8, align 8
  %13 = getelementptr inbounds nuw %struct._packet_info, ptr %12, i32 0, i32 8
  %14 = load ptr, ptr %13, align 8
  %15 = getelementptr inbounds nuw %struct._frame_data, ptr %14, i32 0, i32 11
  %16 = load i16, ptr %15, align 1
  %17 = lshr i16 %16, 3
  %18 = and i16 %17, 1
  %19 = zext i16 %18 to i32
  %20 = icmp ne i32 %19, 0
  br i1 %20, label %28, label %21

21:                                               ; preds = %5
  call void @llvm.lifetime.start.p0(i64 8, ptr %11) #11
  %22 = load ptr, ptr %8, align 8
  %23 = call ptr @find_or_create_conversation(ptr noundef %22)
  %24 = load i16, ptr %6, align 2
  %25 = call ptr @get_conversation_channel(ptr noundef %23, i16 noundef zeroext %24)
  store ptr %25, ptr %11, align 8
  %26 = load ptr, ptr %11, align 8
  %27 = getelementptr inbounds nuw %struct._amqp_channel_t, ptr %26, i32 0, i32 1
  store i8 1, ptr %27, align 8
  call void @llvm.lifetime.end.p0(i64 8, ptr %11) #11
  br label %28

28:                                               ; preds = %21, %5
  %29 = load i32, ptr %9, align 4
  ret i32 %29
}