; Function Attrs: null_pointer_is_valid sspstrong uwtable
define internal fastcc void @dissect_amqp_0_9_method_confirm_select_ok(i16 noundef zeroext %0, ptr noundef %1) unnamed_addr #0 {
  %3 = getelementptr inbounds nuw i8, ptr %1, i64 80
  %4 = load ptr, ptr %3, align 8
  %5 = getelementptr inbounds nuw i8, ptr %4, i64 57
  %6 = load i16, ptr %5, align 1
  %7 = and i16 %6, 8
  %.not = icmp eq i16 %7, 0
  br i1 %.not, label %8, label %26

8:                                                ; preds = %2
  %9 = tail call ptr @find_or_create_conversation(ptr noundef %1)
  %10 = load i32, ptr @proto_amqp, align 4
  %11 = tail call ptr @conversation_get_proto_data(ptr noundef %9, i32 noundef %10)
  %.not.i = icmp eq ptr %11, null
  br i1 %.not.i, label %get_conversation_channel.exit, label %12

12:                                               ; preds = %8
  %13 = getelementptr inbounds nuw i8, ptr %11, i64 8
  %14 = load ptr, ptr %13, align 8
  %15 = zext i16 %0 to i64
  %16 = inttoptr i64 %15 to ptr
  %17 = tail call ptr @wmem_map_lookup(ptr noundef %14, ptr noundef %16)
  %18 = icmp eq ptr %17, null
  br i1 %18, label %19, label %get_conversation_channel.exit

19:                                               ; preds = %12
  %20 = tail call ptr @wmem_file_scope()
  %21 = tail call noalias dereferenceable_or_null(48) ptr @wmem_alloc0(ptr noundef %20, i64 noundef 48) #13
  store ptr %11, ptr %21, align 8
  %22 = getelementptr inbounds nuw i8, ptr %21, i64 10
  store i16 %0, ptr %22, align 2
  %23 = load ptr, ptr %13, align 8
  %24 = tail call ptr @wmem_map_insert(ptr noundef %23, ptr noundef %16, ptr noundef %21)
  br label %get_conversation_channel.exit

get_conversation_channel.exit:                    ; preds = %8, %12, %19
  %.013.i = phi ptr [ null, %8 ], [ %21, %19 ], [ %17, %12 ]
  %25 = getelementptr inbounds nuw i8, ptr %.013.i, i64 8
  store i8 1, ptr %25, align 8
  br label %26

26:                                               ; preds = %get_conversation_channel.exit, %2
  ret void
}